; Function Attrs: nounwind uwtable
define range(i32 -1, 1) i32 @H5G_loc_copy(ptr noundef readonly captures(none) %0, ptr noundef readonly captures(none) %1, i32 noundef %2) local_unnamed_addr #0 {
  %4 = load i8, ptr @H5G_init_g, align 1, !tbaa !3, !range !7, !noundef !8
  %5 = trunc nuw i8 %4 to i1
  %6 = load i8, ptr @H5_libterm_g, align 1, !range !7
  %7 = trunc nuw i8 %6 to i1
  %8 = select i1 %5, i1 true, i1 %7
  br i1 %8, label %16, label %9, !prof !9

9:                                                ; preds = %3
  store i8 1, ptr @H5G_init_g, align 1, !tbaa !3
  %10 = tail call i32 @H5G__init_package() #9
  %11 = icmp slt i32 %10, 0
  br i1 %11, label %12, label %._crit_edge

._crit_edge:                                      ; preds = %9
  %.pre = load i8, ptr @H5G_init_g, align 1, !tbaa !3, !range !7
  %.pre9 = load i8, ptr @H5_libterm_g, align 1, !range !7
  %.pre10 = trunc nuw i8 %.pre to i1
  %.pre11 = trunc nuw i8 %.pre9 to i1
  br label %16

12:                                               ; preds = %9
  store i8 0, ptr @H5G_init_g, align 1, !tbaa !3
  %13 = load i64, ptr @H5E_FUNC_g, align 8, !tbaa !10
  %14 = load i64, ptr @H5E_CANTINIT_g, align 8, !tbaa !10
  %15 = tail call i32 (ptr, ptr, i32, i64, i64, ptr, ...) @H5E_printf_stack(ptr noundef nonnull @.str, ptr noundef nonnull @__func__.H5G_loc_copy, i32 noundef 286, i64 noundef %13, i64 noundef %14, ptr noundef nonnull @.str.1) #9
  br label %39

16:                                               ; preds = %._crit_edge, %3
  %.pre-phi12 = phi i1 [ %.pre11, %._crit_edge ], [ %7, %3 ]
  %.pre-phi = phi i1 [ %.pre10, %._crit_edge ], [ %5, %3 ]
  %17 = xor i1 %.pre-phi12, true
  %18 = select i1 %.pre-phi, i1 true, i1 %17
  br i1 %18, label %19, label %39, !prof !9

19:                                               ; preds = %16
  %20 = load ptr, ptr %0, align 8, !tbaa !12
  %21 = load ptr, ptr %1, align 8, !tbaa !12
  %22 = tail call i32 @H5O_loc_copy(ptr noundef %20, ptr noundef %21, i32 noundef %2) #9
  %23 = icmp slt i32 %22, 0
  br i1 %23, label %24, label %28

24:                                               ; preds = %19
  %25 = load i64, ptr @H5E_SYM_g, align 8, !tbaa !10
  %26 = load i64, ptr @H5E_CANTOPENOBJ_g, align 8, !tbaa !10
  %27 = tail call i32 (ptr, ptr, i32, i64, i64, ptr, ...) @H5E_printf_stack(ptr noundef nonnull @.str, ptr noundef nonnull @__func__.H5G_loc_copy, i32 noundef 294, i64 noundef %25, i64 noundef %26, ptr noundef nonnull @.str.22) #9
  br label %39

28:                                               ; preds = %19
  %29 = getelementptr inbounds nuw i8, ptr %0, i64 8
  %30 = load ptr, ptr %29, align 8, !tbaa !17
  %31 = getelementptr inbounds nuw i8, ptr %1, i64 8
  %32 = load ptr, ptr %31, align 8, !tbaa !17
  %33 = tail call i32 @H5G_name_copy(ptr noundef %30, ptr noundef %32, i32 noundef %2) #9
  %34 = icmp slt i32 %33, 0
  br i1 %34, label %35, label %39

35:                                               ; preds = %28
  %36 = load i64, ptr @H5E_SYM_g, align 8, !tbaa !10
  %37 = load i64, ptr @H5E_CANTOPENOBJ_g, align 8, !tbaa !10
  %38 = tail call i32 (ptr, ptr, i32, i64, i64, ptr, ...) @H5E_printf_stack(ptr noundef nonnull @.str, ptr noundef nonnull @__func__.H5G_loc_copy, i32 noundef 296, i64 noundef %36, i64 noundef %37, ptr noundef nonnull @.str.23) #9
  br label %39

39:                                               ; preds = %12, %24, %35, %28, %16
  %.0 = phi i32 [ -1, %12 ], [ -1, %24 ], [ -1, %35 ], [ 0, %28 ], [ 0, %16 ]
  ret i32 %.0
}